target datalayout = "e-m:e-p270:32:32-p271:32:32-p272:64:64-i64:64-i128:128-f80:128-n8:16:32:64-S128"
target triple = "x86_64-pc-linux-gnu"

%struct.H5B2_hdr_t = type { %struct.H5C_cache_entry_t, %struct.H5B2_node_ptr_t, i8, i8, i32, i32, i16, i8, ptr, i64, i64, i64, i64, i8, i8, i8, ptr, ptr, ptr, ptr, ptr, ptr, ptr, i8, ptr, ptr, i64, ptr, ptr }
%struct.H5C_cache_entry_t = type { ptr, i64, i64, ptr, i8, ptr, i8, i8, i8, i8, i32, i8, i8, i8, i8, i8, i32, ptr, i32, i32, i32, i32, i32, i8, i8, ptr, ptr, ptr, ptr, ptr, ptr, i8, i32, i8, i64, ptr, i64, i64, i32, i8, i32, i32, i8, ptr, ptr, ptr }
%struct.H5B2_node_ptr_t = type { i64, i16, i64 }
%struct.H5B2_internal_cache_ud_t = type { ptr, ptr, ptr, i16, i16 }
%struct.H5B2_node_info_t = type { i32, i32, i32, i64, i8, ptr, ptr }

@H5B2_init_g = external global i8, align 1
@H5_libterm_g = external global i8, align 1
@.str.3 = private unnamed_addr constant [103 x i8] c"generated/home/dtcxzyw/WorkSpace/Projects/compilers/llvm-opt-benchmark/bench/hdf5/hdf5/src/H5B2cache.c\00", align 1
@H5E_BTREE_g = external global i64, align 8
@H5E_CANTGET_g = external global i64, align 8
@.str.4 = private unnamed_addr constant [20 x i8] c"can't get checksums\00", align 1
@__func__.H5B2__cache_int_verify_chksum = private unnamed_addr constant [30 x i8] c"H5B2__cache_int_verify_chksum\00", align 1

; Function Attrs: nounwind uwtable
define internal i32 @H5B2__cache_int_verify_chksum(ptr noundef %0, i64 noundef %1, ptr noundef %2) #0 {
  %4 = alloca ptr, align 8
  %5 = alloca i64, align 8
  %6 = alloca ptr, align 8
  %7 = alloca ptr, align 8
  %8 = alloca ptr, align 8
  %9 = alloca i64, align 8
  %10 = alloca i32, align 4
  %11 = alloca i32, align 4
  %12 = alloca i32, align 4
  %13 = alloca i8, align 1
  store ptr %0, ptr %4, align 8, !tbaa !3
  store i64 %1, ptr %5, align 8, !tbaa !19
  store ptr %2, ptr %6, align 8, !tbaa !3
  call void @llvm.lifetime.start.p0(i64 8, ptr %7) #7
  %14 = load ptr, ptr %4, align 8, !tbaa !3
  store ptr %14, ptr %7, align 8, !tbaa !20
  call void @llvm.lifetime.start.p0(i64 8, ptr %8) #7
  %15 = load ptr, ptr %6, align 8, !tbaa !3
  store ptr %15, ptr %8, align 8, !tbaa !72
  call void @llvm.lifetime.start.p0(i64 8, ptr %9) #7
  call void @llvm.lifetime.start.p0(i64 4, ptr %10) #7
  call void @llvm.lifetime.start.p0(i64 4, ptr %11) #7
  call void @llvm.lifetime.start.p0(i64 4, ptr %12) #7
  store i32 1, ptr %12, align 4, !tbaa !22
  call void @llvm.lifetime.start.p0(i64 1, ptr %13) #7
  store i8 0, ptr %13, align 1, !tbaa !11
  %16 = load i8, ptr @H5B2_init_g, align 1, !tbaa !11, !range !13, !noundef !14
  %17 = trunc i8 %16 to i1
  br i1 %17, label %22, label %18

18:                                               ; preds = %3
  %19 = load i8, ptr @H5_libterm_g, align 1, !tbaa !11, !range !13, !noundef !14
  %20 = trunc i8 %19 to i1
  %21 = xor i1 %20, true
  br label %22

22:                                               ; preds = %18, %3
  %23 = phi i1 [ true, %3 ], [ %21, %18 ]
  %24 = xor i1 %23, true
  %25 = xor i1 %24, true
  %26 = zext i1 %25 to i32
  %27 = sext i32 %26 to i64
  %28 = call i64 @llvm.expect.i64(i64 %27, i64 1)
  %29 = icmp ne i64 %28, 0
  br i1 %29, label %30, label %111

30:                                               ; preds = %22
  %31 = load ptr, ptr %8, align 8, !tbaa !72
  %32 = getelementptr inbounds nuw %struct.H5B2_internal_cache_ud_t, ptr %31, i32 0, i32 3
  %33 = load i16, ptr %32, align 8, !tbaa !76
  %34 = zext i16 %33 to i32
  %35 = load ptr, ptr %8, align 8, !tbaa !72
  %36 = getelementptr inbounds nuw %struct.H5B2_internal_cache_ud_t, ptr %35, i32 0, i32 1
  %37 = load ptr, ptr %36, align 8, !tbaa !74
  %38 = getelementptr inbounds nuw %struct.H5B2_hdr_t, ptr %37, i32 0, i32 5
  %39 = load i32, ptr %38, align 8, !tbaa !61
  %40 = mul i32 %34, %39
  %41 = add i32 10, %40
  %42 = zext i32 %41 to i64
  %43 = load ptr, ptr %8, align 8, !tbaa !72
  %44 = getelementptr inbounds nuw %struct.H5B2_internal_cache_ud_t, ptr %43, i32 0, i32 3
  %45 = load i16, ptr %44, align 8, !tbaa !76
  %46 = zext i16 %45 to i32
  %47 = add nsw i32 %46, 1
  %48 = sext i32 %47 to i64
  %49 = load ptr, ptr %8, align 8, !tbaa !72
  %50 = getelementptr inbounds nuw %struct.H5B2_internal_cache_ud_t, ptr %49, i32 0, i32 1
  %51 = load ptr, ptr %50, align 8, !tbaa !74
  %52 = getelementptr inbounds nuw %struct.H5B2_hdr_t, ptr %51, i32 0, i32 15
  %53 = load i8, ptr %52, align 2, !tbaa !77
  %54 = zext i8 %53 to i32
  %55 = load ptr, ptr %8, align 8, !tbaa !72
  %56 = getelementptr inbounds nuw %struct.H5B2_internal_cache_ud_t, ptr %55, i32 0, i32 1
  %57 = load ptr, ptr %56, align 8, !tbaa !74
  %58 = getelementptr inbounds nuw %struct.H5B2_hdr_t, ptr %57, i32 0, i32 7
  %59 = load i8, ptr %58, align 2, !tbaa !78
  %60 = zext i8 %59 to i32
  %61 = add i32 %54, %60
  %62 = load ptr, ptr %8, align 8, !tbaa !72
  %63 = getelementptr inbounds nuw %struct.H5B2_internal_cache_ud_t, ptr %62, i32 0, i32 1
  %64 = load ptr, ptr %63, align 8, !tbaa !74
  %65 = getelementptr inbounds nuw %struct.H5B2_hdr_t, ptr %64, i32 0, i32 20
  %66 = load ptr, ptr %65, align 8, !tbaa !79
  %67 = load ptr, ptr %8, align 8, !tbaa !72
  %68 = getelementptr inbounds nuw %struct.H5B2_internal_cache_ud_t, ptr %67, i32 0, i32 4
  %69 = load i16, ptr %68, align 2, !tbaa !80
  %70 = zext i16 %69 to i32
  %71 = sub nsw i32 %70, 1
  %72 = sext i32 %71 to i64
  %73 = getelementptr inbounds %struct.H5B2_node_info_t, ptr %66, i64 %72
  %74 = getelementptr inbounds nuw %struct.H5B2_node_info_t, ptr %73, i32 0, i32 4
  %75 = load i8, ptr %74, align 8, !tbaa !81
  %76 = zext i8 %75 to i32
  %77 = add i32 %61, %76
  %78 = zext i32 %77 to i64
  %79 = mul i64 %48, %78
  %80 = add i64 %42, %79
  store i64 %80, ptr %9, align 8, !tbaa !19
  %81 = load ptr, ptr %7, align 8, !tbaa !20
  %82 = load i64, ptr %9, align 8, !tbaa !19
  %83 = call i32 @H5F_get_checksums(ptr noundef %81, i64 noundef %82, ptr noundef %10, ptr noundef %11)
  %84 = icmp slt i32 %83, 0
  br i1 %84, label %85, label %104

85:                                               ; preds = %30
  br label %86

86:                                               ; preds = %85
  br label %87

87:                                               ; preds = %86
  br label %88

88:                                               ; preds = %87
  %89 = load i64, ptr @H5E_BTREE_g, align 8, !tbaa !19
  %90 = load i64, ptr @H5E_CANTGET_g, align 8, !tbaa !19
  %91 = call i32 (ptr, ptr, i32, i64, i64, ptr, ...) @H5E_printf_stack(ptr noundef @.str.3, ptr noundef @__func__.H5B2__cache_int_verify_chksum, i32 noundef 574, i64 noundef %89, i64 noundef %90, ptr noundef @.str.4)
  br label %92

92:                                               ; preds = %88
  br label %93

93:                                               ; preds = %92
  store i8 1, ptr %13, align 1, !tbaa !11
  %94 = load i8, ptr %13, align 1, !tbaa !11, !range !13, !noundef !14
  %95 = trunc i8 %94 to i1
  %96 = zext i1 %95 to i8
  store i8 %96, ptr %13, align 1, !tbaa !11
  br label %97

97:                                               ; preds = %93
  br label %98

98:                                               ; preds = %97
  br label %99

99:                                               ; preds = %98
  store i32 -1, ptr %12, align 4, !tbaa !22
  br label %110

100:                                              ; No predecessors!
  br label %101

101:                                              ; preds = %100
  br label %102

102:                                              ; preds = %101
  br label %103

103:                                              ; preds = %102
  br label %104

104:                                              ; preds = %103, %30
  %105 = load i32, ptr %10, align 4, !tbaa !22
  %106 = load i32, ptr %11, align 4, !tbaa !22
  %107 = icmp ne i32 %105, %106
  br i1 %107, label %108, label %109

108:                                              ; preds = %104
  store i32 0, ptr %12, align 4, !tbaa !22
  br label %109

109:                                              ; preds = %108, %104
  br label %110

110:                                              ; preds = %109, %99
  br label %111

111:                                              ; preds = %110, %22
  %112 = load i32, ptr %12, align 4, !tbaa !22
  call void @llvm.lifetime.end.p0(i64 1, ptr %13) #7
  call void @llvm.lifetime.end.p0(i64 4, ptr %12) #7
  call void @llvm.lifetime.end.p0(i64 4, ptr %11) #7
  call void @llvm.lifetime.end.p0(i64 4, ptr %10) #7
  call void @llvm.lifetime.end.p0(i64 8, ptr %9) #7
  call void @llvm.lifetime.end.p0(i64 8, ptr %8) #7
  call void @llvm.lifetime.end.p0(i64 8, ptr %7) #7
  ret i32 %112
}