; Function Attrs: nounwind uwtable
define internal range(i32 -1, 2) i32 @H5B2__cache_int_verify_chksum(ptr noundef %0, i64 %1, ptr noundef readonly captures(none) %2) #0 {
  %4 = alloca i32, align 4
  %5 = alloca i32, align 4
  call void @llvm.lifetime.start.p0(i64 4, ptr nonnull %4) #6
  call void @llvm.lifetime.start.p0(i64 4, ptr nonnull %5) #6
  %6 = load i8, ptr @H5B2_init_g, align 1, !tbaa !3, !range !7, !noundef !8
  %7 = trunc nuw i8 %6 to i1
  %8 = load i8, ptr @H5_libterm_g, align 1, !range !7
  %9 = trunc nuw i8 %8 to i1
  %10 = xor i1 %9, true
  %11 = select i1 %7, i1 true, i1 %10
  br i1 %11, label %12, label %53, !prof !9

12:                                               ; preds = %3
  %13 = getelementptr inbounds nuw i8, ptr %2, i64 24
  %14 = load i16, ptr %13, align 8, !tbaa !65
  %15 = zext i16 %14 to i32
  %16 = getelementptr inbounds nuw i8, ptr %2, i64 8
  %17 = load ptr, ptr %16, align 8, !tbaa !62
  %18 = getelementptr inbounds nuw i8, ptr %17, i64 280
  %19 = load i32, ptr %18, align 8, !tbaa !52
  %20 = mul i32 %19, %15
  %21 = add i32 %20, 10
  %22 = zext i32 %21 to i64
  %23 = add nuw nsw i32 %15, 1
  %24 = zext nneg i32 %23 to i64
  %25 = getelementptr inbounds nuw i8, ptr %17, i64 330
  %26 = load i8, ptr %25, align 2, !tbaa !66
  %27 = zext i8 %26 to i64
  %28 = getelementptr inbounds nuw i8, ptr %17, i64 286
  %29 = load i8, ptr %28, align 2, !tbaa !67
  %30 = zext i8 %29 to i64
  %31 = add nuw nsw i64 %30, %27
  %32 = getelementptr inbounds nuw i8, ptr %17, i64 368
  %33 = load ptr, ptr %32, align 8, !tbaa !68
  %34 = getelementptr inbounds nuw i8, ptr %2, i64 26
  %35 = load i16, ptr %34, align 2, !tbaa !69
  %36 = zext i16 %35 to i64
  %37 = getelementptr %struct.H5B2_node_info_t, ptr %33, i64 %36
  %38 = getelementptr i8, ptr %37, i64 -24
  %39 = load i8, ptr %38, align 8, !tbaa !70
  %40 = zext i8 %39 to i64
  %41 = add nuw nsw i64 %31, %40
  %42 = mul nuw nsw i64 %41, %24
  %43 = add nuw nsw i64 %42, %22
  %44 = call i32 @H5F_get_checksums(ptr noundef %0, i64 noundef %43, ptr noundef nonnull %4, ptr noundef nonnull %5) #6
  %45 = icmp slt i32 %44, 0
  br i1 %45, label %46, label %50

46:                                               ; preds = %12
  %47 = load i64, ptr @H5E_BTREE_g, align 8, !tbaa !15
  %48 = load i64, ptr @H5E_CANTGET_g, align 8, !tbaa !15
  %49 = call i32 (ptr, ptr, i32, i64, i64, ptr, ...) @H5E_printf_stack(ptr noundef nonnull @.str.3, ptr noundef nonnull @__func__.H5B2__cache_int_verify_chksum, i32 noundef 574, i64 noundef %47, i64 noundef %48, ptr noundef nonnull @.str.4) #6
  br label %53

50:                                               ; preds = %12
  %51 = load i32, ptr %4, align 4, !tbaa !16
  %52 = load i32, ptr %5, align 4, !tbaa !16
  %.not = icmp eq i32 %51, %52
  %spec.select = zext i1 %.not to i32
  br label %53

53:                                               ; preds = %50, %46, %3
  %.0 = phi i32 [ -1, %46 ], [ 1, %3 ], [ %spec.select, %50 ]
  call void @llvm.lifetime.end.p0(i64 4, ptr nonnull %5) #6
  call void @llvm.lifetime.end.p0(i64 4, ptr nonnull %4) #6
  ret i32 %.0
}